Certificate:
    Data:
        Version: 3 (0x2)
        Serial Number: 2 (0x2)
        Signature Algorithm: sha1WithRSAEncryption
        Issuer: C=UK, ST=LO, L=London, O=Avanti, CN=Avanti CA/emailAddress=me@dart.avantiplc.com
        Validity
            Not Before: Jun 15 15:13:49 2012 GMT
            Not After : Jun 13 15:13:49 2022 GMT
        Subject: C=UK, ST=LO, L=London, O=Avanti, CN=client-nxy/emailAddress=me@dart.avantiplc.com
        Subject Public Key Info:
            Public Key Algorithm: rsaEncryption
            RSA Public Key: (1024 bit)
                Modulus (1024 bit):
                    00:d8:f9:df:25:95:23:3e:f3:22:00:fa:84:39:77:
                    90:0e:d1:e3:d2:a5:52:f7:cd:e5:b4:bf:ee:df:44:
                    78:13:76:98:20:c8:f7:c5:80:89:66:ef:a5:df:3c:
                    a5:d6:35:41:a9:54:95:2a:d8:a5:b7:a8:55:1b:43:
                    e2:83:22:5c:a7:dc:31:f5:96:3c:8f:d3:9c:4c:b0:
                    07:ee:ab:7a:34:d3:10:00:9a:63:10:67:fb:3a:22:
                    c9:13:53:c7:00:51:0b:6d:e7:c7:ca:b6:14:be:e0:
                    ae:34:34:61:3f:df:61:4e:64:7e:25:5c:c0:4e:7d:
                    af:f7:d8:c3:5c:d1:48:9b:f7
                Exponent: 65537 (0x10001)
        X509v3 extensions:
            X509v3 Basic Constraints: 
                CA:FALSE
            Netscape Comment: 
                Easy-RSA Generated Certificate
            X509v3 Subject Key Identifier: 
                DE:FD:17:3E:3F:79:29:D6:83:91:3D:99:AC:4F:3D:A8:AD:CF:98:48
            X509v3 Authority Key Identifier: 
                keyid:5F:4B:C5:16:14:AC:27:5D:D8:E4:C8:7C:23:D3:36:82:4B:35:EE:E8
                DirName:/C=UK/ST=LO/L=London/O=Avanti/CN=Avanti CA/emailAddress=me@dart.avantiplc.com
                serial:B7:28:10:D1:F4:69:5D:65

            X509v3 Extended Key Usage: 
                TLS Web Client Authentication
            X509v3 Key Usage: 
                Digital Signature
    Signature Algorithm: sha1WithRSAEncryption
        64:2b:7a:71:1b:ec:c8:5a:7d:a4:1d:6d:0a:f6:a9:03:6b:75:
        46:54:d1:37:33:99:80:3d:6a:eb:fa:28:18:15:e1:fc:0d:60:
        3c:c8:29:a1:04:78:e2:09:5b:fe:37:c3:54:86:7b:88:ea:06:
        5b:d4:c4:65:d6:f5:ed:da:47:3d:36:5b:59:0e:a1:c1:d4:2b:
        40:fd:00:b3:38:1c:4a:e8:90:8b:3f:d3:cb:92:60:f6:d8:3f:
        49:0e:1e:b4:d8:61:6c:0d:9a:2e:47:2a:2a:78:b3:0a:6d:01:
        ec:9d:5e:d5:f7:e2:be:fc:50:81:9d:9f:d3:74:be:73:e1:7b:
        d3:fb
-----BEGIN CERTIFICATE-----
MIIDjzCCAvigAwIBAgIBAjANBgkqhkiG9w0BAQUFADB2MQswCQYDVQQGEwJVSzEL
MAkGA1UECBMCTE8xDzANBgNVBAcTBkxvbmRvbjEPMA0GA1UEChMGQXZhbnRpMRIw
EAYDVQQDEwlBdmFudGkgQ0ExJDAiBgkqhkiG9w0BCQEWFW1lQGRhcnQuYXZhbnRp
cGxjLmNvbTAeFw0xMjA2MTUxNTEzNDlaFw0yMjA2MTMxNTEzNDlaMHcxCzAJBgNV
BAYTAlVLMQswCQYDVQQIEwJMTzEPMA0GA1UEBxMGTG9uZG9uMQ8wDQYDVQQKEwZB
dmFudGkxEzARBgNVBAMTCmNsaWVudC1ueHkxJDAiBgkqhkiG9w0BCQEWFW1lQGRh
cnQuYXZhbnRpcGxjLmNvbTCBnzANBgkqhkiG9w0BAQEFAAOBjQAwgYkCgYEA2Pnf
JZUjPvMiAPqEOXeQDtHj0qVS983ltL/u30R4E3aYIMj3xYCJZu+l3zyl1jVBqVSV
Ktilt6hVG0PigyJcp9wx9ZY8j9OcTLAH7qt6NNMQAJpjEGf7OiLJE1PHAFELbefH
yrYUvuCuNDRhP99hTmR+JVzATn2v99jDXNFIm/cCAwEAAaOCASowggEmMAkGA1Ud
EwQCMAAwLQYJYIZIAYb4QgENBCAWHkVhc3ktUlNBIEdlbmVyYXRlZCBDZXJ0aWZp
Y2F0ZTAdBgNVHQ4EFgQU3v0XPj95KdaDkT2ZrE89qK3PmEgwgagGA1UdIwSBoDCB
nYAUX0vFFhSsJ13Y5Mh8I9M2gks17uiheqR4MHYxCzAJBgNVBAYTAlVLMQswCQYD
VQQIEwJMTzEPMA0GA1UEBxMGTG9uZG9uMQ8wDQYDVQQKEwZBdmFudGkxEjAQBgNV
BAMTCUF2YW50aSBDQTEkMCIGCSqGSIb3DQEJARYVbWVAZGFydC5hdmFudGlwbGMu
Y29tggkAtygQ0fRpXWUwEwYDVR0lBAwwCgYIKwYBBQUHAwIwCwYDVR0PBAQDAgeA
MA0GCSqGSIb3DQEBBQUAA4GBAGQrenEb7MhafaQdbQr2qQNrdUZU0TczmYA9auv6
KBgV4fwNYDzIKaEEeOIJW/43w1SGe4jqBlvUxGXW9e3aRz02W1kOocHUK0D9ALM4
HErokIs/08uSYPbYP0kOHrTYYWwNmi5HKip4swptAeydXtX34r78UIGdn9N0vnPh
e9P7
-----END CERTIFICATE-----
